target datalayout = "e-m:e-p270:32:32-p271:32:32-p272:64:64-i64:64-i128:128-f80:128-n8:16:32:64-S128"
target triple = "x86_64-pc-linux-gnu"

%struct.JNINativeInterface_ = type { ptr, ptr, ptr, ptr, ptr, ptr, ptr, ptr, ptr, ptr, ptr, ptr, ptr, ptr, ptr, ptr, ptr, ptr, ptr, ptr, ptr, ptr, ptr, ptr, ptr, ptr, ptr, ptr, ptr, ptr, ptr, ptr, ptr, ptr, ptr, ptr, ptr, ptr, ptr, ptr, ptr, ptr, ptr, ptr, ptr, ptr, ptr, ptr, ptr, ptr, ptr, ptr, ptr, ptr, ptr, ptr, ptr, ptr, ptr, ptr, ptr, ptr, ptr, ptr, ptr, ptr, ptr, ptr, ptr, ptr, ptr, ptr, ptr, ptr, ptr, ptr, ptr, ptr, ptr, ptr, ptr, ptr, ptr, ptr, ptr, ptr, ptr, ptr, ptr, ptr, ptr, ptr, ptr, ptr, ptr, ptr, ptr, ptr, ptr, ptr, ptr, ptr, ptr, ptr, ptr, ptr, ptr, ptr, ptr, ptr, ptr, ptr, ptr, ptr, ptr, ptr, ptr, ptr, ptr, ptr, ptr, ptr, ptr, ptr, ptr, ptr, ptr, ptr, ptr, ptr, ptr, ptr, ptr, ptr, ptr, ptr, ptr, ptr, ptr, ptr, ptr, ptr, ptr, ptr, ptr, ptr, ptr, ptr, ptr, ptr, ptr, ptr, ptr, ptr, ptr, ptr, ptr, ptr, ptr, ptr, ptr, ptr, ptr, ptr, ptr, ptr, ptr, ptr, ptr, ptr, ptr, ptr, ptr, ptr, ptr, ptr, ptr, ptr, ptr, ptr, ptr, ptr, ptr, ptr, ptr, ptr, ptr, ptr, ptr, ptr, ptr, ptr, ptr, ptr, ptr, ptr, ptr, ptr, ptr, ptr, ptr, ptr, ptr, ptr, ptr, ptr, ptr, ptr, ptr, ptr, ptr, ptr, ptr, ptr, ptr, ptr, ptr, ptr, ptr, ptr, ptr, ptr, ptr, ptr, ptr, ptr, ptr, ptr, ptr, ptr, ptr, ptr, ptr, ptr, ptr }
%struct.GSS_FUNCTION_TABLE = type { ptr, ptr, ptr, ptr, ptr, ptr, ptr, ptr, ptr, ptr, ptr, ptr, ptr, ptr, ptr, ptr, ptr, ptr, ptr, ptr, ptr, ptr, ptr, ptr, ptr, ptr, ptr, ptr, ptr }

@ftab = external global ptr, align 8
@FID_GSSLibStub_pMech = external global ptr, align 8
@.str.5 = private unnamed_addr constant [33 x i8] c"[GSSLibStub_inquireNamesForMech]\00", align 1

; Function Attrs: nounwind uwtable
define ptr @Java_sun_security_jgss_wrapper_GSSLibStub_inquireNamesForMech(ptr noundef %0, ptr noundef %1) #0 {
  %3 = alloca ptr, align 8
  %4 = alloca ptr, align 8
  %5 = alloca ptr, align 8
  %6 = alloca i32, align 4
  %7 = alloca i32, align 4
  %8 = alloca ptr, align 8
  %9 = alloca ptr, align 8
  %10 = alloca ptr, align 8
  store ptr %0, ptr %4, align 8
  store ptr %1, ptr %5, align 8
  %11 = load ptr, ptr @ftab, align 8
  %12 = getelementptr inbounds %struct.GSS_FUNCTION_TABLE, ptr %11, i32 0, i32 23
  %13 = load ptr, ptr %12, align 8
  %14 = icmp ne ptr %13, null
  br i1 %14, label %15, label %57

15:                                               ; preds = %2
  %16 = load ptr, ptr %4, align 8
  %17 = load ptr, ptr %16, align 8
  %18 = getelementptr inbounds %struct.JNINativeInterface_, ptr %17, i32 0, i32 101
  %19 = load ptr, ptr %18, align 8
  %20 = load ptr, ptr %4, align 8
  %21 = load ptr, ptr %5, align 8
  %22 = load ptr, ptr @FID_GSSLibStub_pMech, align 8
  %23 = call i64 %19(ptr noundef %20, ptr noundef %21, ptr noundef %22)
  %24 = inttoptr i64 %23 to ptr
  store ptr %24, ptr %8, align 8
  store ptr null, ptr %9, align 8
  %25 = load ptr, ptr @ftab, align 8
  %26 = getelementptr inbounds %struct.GSS_FUNCTION_TABLE, ptr %25, i32 0, i32 23
  %27 = load ptr, ptr %26, align 8
  %28 = load ptr, ptr %8, align 8
  %29 = call i32 %27(ptr noundef %6, ptr noundef %28, ptr noundef %9)
  store i32 %29, ptr %7, align 4
  %30 = load ptr, ptr %4, align 8
  %31 = load ptr, ptr %9, align 8
  %32 = call ptr @getJavaOIDArray(ptr noundef %30, ptr noundef %31)
  store ptr %32, ptr %10, align 8
  %33 = load ptr, ptr %9, align 8
  call void @deleteGSSOIDSet(ptr noundef %33)
  %34 = load ptr, ptr %4, align 8
  %35 = load ptr, ptr %34, align 8
  %36 = getelementptr inbounds %struct.JNINativeInterface_, ptr %35, i32 0, i32 228
  %37 = load ptr, ptr %36, align 8
  %38 = load ptr, ptr %4, align 8
  %39 = call zeroext i8 %37(ptr noundef %38)
  %40 = icmp ne i8 %39, 0
  br i1 %40, label %41, label %42

41:                                               ; preds = %15
  store ptr null, ptr %3, align 8
  br label %58

42:                                               ; preds = %15
  %43 = load ptr, ptr %4, align 8
  %44 = load ptr, ptr %5, align 8
  %45 = load i32, ptr %7, align 4
  %46 = load i32, ptr %6, align 4
  call void @checkStatus(ptr noundef %43, ptr noundef %44, i32 noundef %45, i32 noundef %46, ptr noundef @.str.5)
  %47 = load ptr, ptr %4, align 8
  %48 = load ptr, ptr %47, align 8
  %49 = getelementptr inbounds %struct.JNINativeInterface_, ptr %48, i32 0, i32 228
  %50 = load ptr, ptr %49, align 8
  %51 = load ptr, ptr %4, align 8
  %52 = call zeroext i8 %50(ptr noundef %51)
  %53 = icmp ne i8 %52, 0
  br i1 %53, label %54, label %55

54:                                               ; preds = %42
  store ptr null, ptr %3, align 8
  br label %58

55:                                               ; preds = %42
  %56 = load ptr, ptr %10, align 8
  store ptr %56, ptr %3, align 8
  br label %58

57:                                               ; preds = %2
  store ptr null, ptr %3, align 8
  br label %58

58:                                               ; preds = %57, %55, %54, %41
  %59 = load ptr, ptr %3, align 8
  ret ptr %59
}