; Function Attrs: nounwind uwtable
define ptr @Java_sun_security_jgss_wrapper_GSSLibStub_inquireNamesForMech(ptr noundef %0, ptr noundef %1) local_unnamed_addr #0 {
  %3 = alloca i32, align 4
  %4 = alloca ptr, align 8
  %5 = load ptr, ptr @ftab, align 8
  %6 = getelementptr inbounds i8, ptr %5, i64 184
  %7 = load ptr, ptr %6, align 8
  %.not = icmp eq ptr %7, null
  br i1 %.not, label %32, label %8

8:                                                ; preds = %2
  %9 = load ptr, ptr %0, align 8
  %10 = getelementptr inbounds i8, ptr %9, i64 808
  %11 = load ptr, ptr %10, align 8
  %12 = load ptr, ptr @FID_GSSLibStub_pMech, align 8
  %13 = tail call i64 %11(ptr noundef nonnull %0, ptr noundef %1, ptr noundef %12) #9
  %14 = inttoptr i64 %13 to ptr
  store ptr null, ptr %4, align 8
  %15 = load ptr, ptr @ftab, align 8
  %16 = getelementptr inbounds i8, ptr %15, i64 184
  %17 = load ptr, ptr %16, align 8
  %18 = call i32 %17(ptr noundef nonnull %3, ptr noundef %14, ptr noundef nonnull %4) #9
  %19 = load ptr, ptr %4, align 8
  %20 = call ptr @getJavaOIDArray(ptr noundef nonnull %0, ptr noundef %19) #9
  %21 = load ptr, ptr %4, align 8
  call void @deleteGSSOIDSet(ptr noundef %21) #9
  %22 = load ptr, ptr %0, align 8
  %23 = getelementptr inbounds i8, ptr %22, i64 1824
  %24 = load ptr, ptr %23, align 8
  %25 = call zeroext i8 %24(ptr noundef nonnull %0) #9
  %.not13 = icmp eq i8 %25, 0
  br i1 %.not13, label %26, label %32

26:                                               ; preds = %8
  %27 = load i32, ptr %3, align 4
  call void @checkStatus(ptr noundef nonnull %0, ptr noundef %1, i32 noundef %18, i32 noundef %27, ptr noundef nonnull @.str.5) #9
  %28 = load ptr, ptr %0, align 8
  %29 = getelementptr inbounds i8, ptr %28, i64 1824
  %30 = load ptr, ptr %29, align 8
  %31 = call zeroext i8 %30(ptr noundef nonnull %0) #9
  %.not14 = icmp eq i8 %31, 0
  %. = select i1 %.not14, ptr %20, ptr null
  br label %32

32:                                               ; preds = %2, %26, %8
  %.0 = phi ptr [ null, %8 ], [ %., %26 ], [ null, %2 ]
  ret ptr %.0
}